; Function Attrs: nounwind uwtable
define dso_local i32 @nghttp2_session_consume(ptr noundef %0, i32 noundef %1, i64 noundef %2) local_unnamed_addr #1 {
  %4 = icmp eq i32 %1, 0
  br i1 %4, label %nghttp2_session_get_stream.exit.thread, label %5

5:                                                ; preds = %3
  %6 = getelementptr inbounds nuw i8, ptr %0, i64 2828
  %7 = load i32, ptr %6, align 4, !tbaa !73
  %8 = and i32 %7, 1
  %.not = icmp eq i32 %8, 0
  br i1 %.not, label %nghttp2_session_get_stream.exit.thread, label %9

9:                                                ; preds = %5
  %10 = getelementptr inbounds nuw i8, ptr %0, i64 2748
  %11 = getelementptr inbounds nuw i8, ptr %0, i64 2744
  %12 = getelementptr inbounds nuw i8, ptr %0, i64 2846
  %13 = load i8, ptr %12, align 2, !tbaa !147
  %14 = getelementptr inbounds nuw i8, ptr %0, i64 2756
  %15 = load i32, ptr %14, align 4, !tbaa !52
  %16 = tail call fastcc i32 @session_update_consumed_size(ptr noundef nonnull %0, ptr noundef nonnull %10, ptr noundef nonnull %11, i8 noundef zeroext %13, i32 noundef 0, i64 noundef %2, i32 noundef %15)
  %17 = icmp sgt i32 %16, -901
  br i1 %17, label %18, label %nghttp2_session_get_stream.exit.thread

18:                                               ; preds = %9
  %19 = tail call ptr @nghttp2_map_find(ptr noundef nonnull %0, i32 noundef %1) #20
  %20 = icmp eq ptr %19, null
  br i1 %20, label %nghttp2_session_get_stream.exit.thread, label %21

21:                                               ; preds = %18
  %22 = getelementptr inbounds nuw i8, ptr %19, i64 216
  %23 = load i8, ptr %22, align 8, !tbaa !41
  %24 = and i8 %23, 2
  %.not.i = icmp eq i8 %24, 0
  br i1 %.not.i, label %25, label %nghttp2_session_get_stream.exit.thread

25:                                               ; preds = %21
  %26 = getelementptr inbounds nuw i8, ptr %19, i64 204
  %27 = load i32, ptr %26, align 4, !tbaa !42
  %28 = icmp eq i32 %27, 5
  br i1 %28, label %nghttp2_session_get_stream.exit.thread, label %nghttp2_session_get_stream.exit

nghttp2_session_get_stream.exit:                  ; preds = %25
  %29 = getelementptr inbounds nuw i8, ptr %19, i64 180
  %30 = getelementptr inbounds nuw i8, ptr %19, i64 176
  %31 = getelementptr inbounds nuw i8, ptr %19, i64 219
  %32 = load i8, ptr %31, align 1, !tbaa !146
  %33 = getelementptr inbounds nuw i8, ptr %19, i64 168
  %34 = load i32, ptr %33, align 8, !tbaa !142
  %35 = getelementptr inbounds nuw i8, ptr %19, i64 188
  %36 = load i32, ptr %35, align 4, !tbaa !186
  %37 = tail call fastcc i32 @session_update_consumed_size(ptr noundef nonnull %0, ptr noundef nonnull %29, ptr noundef nonnull %30, i8 noundef zeroext %32, i32 noundef %34, i64 noundef %2, i32 noundef %36)
  %38 = icmp sgt i32 %37, -901
  %. = select i1 %38, i32 0, i32 %37
  br label %nghttp2_session_get_stream.exit.thread

nghttp2_session_get_stream.exit.thread:           ; preds = %25, %18, %21, %nghttp2_session_get_stream.exit, %9, %5, %3
  %.0 = phi i32 [ -501, %3 ], [ -519, %5 ], [ %16, %9 ], [ %., %nghttp2_session_get_stream.exit ], [ 0, %21 ], [ 0, %18 ], [ 0, %25 ]
  ret i32 %.0
}